; Function Attrs: nounwind sspstrong uwtable
define internal noundef i64 @min_ii(i64 %0, i64 noundef %1, i32 noundef %2, ptr noundef %3, i64 %4) #0 {
  tail call void @rb_gc_writebarrier_unprotect(i64 noundef %1) #14
  %6 = inttoptr i64 %1 to ptr
  %7 = load i64, ptr %6, align 8, !tbaa !20
  %8 = and i64 %7, 8192
  %.not.i.i = icmp eq i64 %8, 0
  br i1 %.not.i.i, label %11, label %9

9:                                                ; preds = %5
  %10 = getelementptr inbounds nuw i8, ptr %6, i64 16
  br label %RARRAY_PTR.exit

11:                                               ; preds = %5
  %12 = getelementptr inbounds nuw i8, ptr %6, i64 32
  %13 = load ptr, ptr %12, align 8, !tbaa !22
  br label %RARRAY_PTR.exit

RARRAY_PTR.exit:                                  ; preds = %9, %11
  %.0.i.i = phi ptr [ %10, %9 ], [ %13, %11 ]
  switch i32 %2, label %16 [
    i32 0, label %rb_enum_values_pack.exit
    i32 1, label %14
  ]

14:                                               ; preds = %RARRAY_PTR.exit
  %15 = load i64, ptr %3, align 8, !tbaa !7
  br label %rb_enum_values_pack.exit

16:                                               ; preds = %RARRAY_PTR.exit
  %17 = sext i32 %2 to i64
  %18 = tail call i64 @rb_ary_new_from_values(i64 noundef %17, ptr noundef %3) #14
  br label %rb_enum_values_pack.exit

rb_enum_values_pack.exit:                         ; preds = %RARRAY_PTR.exit, %14, %16
  %.0.i = phi i64 [ %15, %14 ], [ %18, %16 ], [ 4, %RARRAY_PTR.exit ]
  %19 = load i64, ptr %.0.i.i, align 8, !tbaa !71
  %20 = icmp eq i64 %19, 36
  br i1 %20, label %.sink.split, label %21

21:                                               ; preds = %rb_enum_values_pack.exit
  %22 = tail call i64 (i32, ...) @rb_yield_values(i32 noundef 2, i64 noundef %.0.i, i64 noundef %19) #14
  %23 = load i64, ptr %.0.i.i, align 8, !tbaa !71
  %24 = tail call i32 @rb_cmpint(i64 noundef %22, i64 noundef %.0.i, i64 noundef %23) #14
  %25 = icmp slt i32 %24, 0
  br i1 %25, label %.sink.split, label %26

.sink.split:                                      ; preds = %21, %rb_enum_values_pack.exit
  store i64 %.0.i, ptr %.0.i.i, align 8, !tbaa !71
  br label %26

26:                                               ; preds = %.sink.split, %21
  ret i64 4
}